target datalayout = "e-m:e-p270:32:32-p271:32:32-p272:64:64-i64:64-i128:128-f80:128-n8:16:32:64-S128"
target triple = "x86_64-pc-linux-gnu"

%"class.logging::LogMessageVoidify" = type { i8 }
%"class.logging::LogMessage" = type <{ i32, [4 x i8], %"class.std::__cxx11::basic_ostringstream", i64, ptr, i32, [4 x i8] }>
%"class.std::__cxx11::basic_ostringstream" = type { %"class.std::basic_ostream.base", %"class.std::__cxx11::basic_stringbuf", %"class.std::basic_ios" }
%"class.std::basic_ostream.base" = type { ptr }
%"class.std::__cxx11::basic_stringbuf" = type { %"class.std::basic_streambuf", i32, %"class.std::__cxx11::basic_string" }
%"class.std::basic_streambuf" = type { ptr, ptr, ptr, ptr, ptr, ptr, ptr, %"class.std::locale" }
%"class.std::locale" = type { ptr }
%"class.std::__cxx11::basic_string" = type { %"struct.std::__cxx11::basic_string<char>::_Alloc_hider", i64, %union.anon }
%"struct.std::__cxx11::basic_string<char>::_Alloc_hider" = type { ptr }
%union.anon = type { i64, [8 x i8] }
%"class.std::basic_ios" = type { %"class.std::ios_base", ptr, i8, i8, ptr, ptr, ptr, ptr }
%"class.std::ios_base" = type { ptr, i64, i64, i32, i32, i32, ptr, %"struct.std::ios_base::_Words", [8 x %"struct.std::ios_base::_Words"], i32, ptr, %"class.std::locale" }
%"struct.std::ios_base::_Words" = type { ptr, i64 }

@.str = private unnamed_addr constant [123 x i8] c"generated/home/dtcxzyw/WorkSpace/Projects/compilers/llvm-opt-benchmark/bench/libquic/libquic/src/net/spdy/spdy_protocol.cc\00", align 1
@.str.4 = private unnamed_addr constant [22 x i8] c"Unhandled frame type \00", align 1

; Function Attrs: inlinehint mustprogress nounwind uwtable
define linkonce_odr noundef i32 @_ZStorSt12_Ios_IostateS_(i32 noundef %0, i32 noundef %1) #9 comdat {
  %3 = alloca i32, align 4
  %4 = alloca i32, align 4
  store i32 %0, ptr %3, align 4, !tbaa !204
  store i32 %1, ptr %4, align 4, !tbaa !204
  %5 = load i32, ptr %3, align 4, !tbaa !204
  %6 = load i32, ptr %4, align 4, !tbaa !204
  %7 = or i32 %5, %6
  ret i32 %7
}

; Function Attrs: mustprogress nounwind uwtable
define available_externally noundef i32 @_ZNKSt9basic_iosIcSt11char_traitsIcEE7rdstateEv(ptr noundef nonnull align 8 dereferenceable(264) %0) #3 align 2 {
  %2 = alloca ptr, align 8
  store ptr %0, ptr %2, align 8, !tbaa !202
  %3 = load ptr, ptr %2, align 8
  %4 = getelementptr inbounds nuw %"class.std::ios_base", ptr %3, i32 0, i32 5
  %5 = load i32, ptr %4, align 8, !tbaa !206
  ret i32 %5
}

; Function Attrs: mustprogress nounwind uwtable
define linkonce_odr noundef i64 @_ZNSt11char_traitsIcE6lengthEPKc(ptr noundef %0) #3 comdat align 2 {
  %2 = alloca ptr, align 8
  store ptr %0, ptr %2, align 8, !tbaa !11
  %3 = load ptr, ptr %2, align 8, !tbaa !11
  %4 = call i64 @strlen(ptr noundef %3) #15
  ret i64 %4
}

; Function Attrs: mustprogress uwtable
define available_externally void @_ZNSt9basic_iosIcSt11char_traitsIcEE8setstateESt12_Ios_Iostate(ptr noundef nonnull align 8 dereferenceable(264) %0, i32 noundef %1) #0 align 2 {
  %3 = alloca ptr, align 8
  %4 = alloca i32, align 4
  store ptr %0, ptr %3, align 8, !tbaa !202
  store i32 %1, ptr %4, align 4, !tbaa !204
  %5 = load ptr, ptr %3, align 8
  %6 = call noundef i32 @_ZNKSt9basic_iosIcSt11char_traitsIcEE7rdstateEv(ptr noundef nonnull align 8 dereferenceable(264) %5)
  %7 = load i32, ptr %4, align 4, !tbaa !204
  %8 = call noundef i32 @_ZStorSt12_Ios_IostateS_(i32 noundef %6, i32 noundef %7)
  call void @_ZNSt9basic_iosIcSt11char_traitsIcEE5clearESt12_Ios_Iostate(ptr noundef nonnull align 8 dereferenceable(264) %5, i32 noundef %8)
  ret void
}

; Function Attrs: mustprogress nounwind uwtable
define linkonce_odr void @_ZN7logging17LogMessageVoidifyanERSo(ptr noundef nonnull align 1 dereferenceable(1) %0, ptr noundef nonnull align 8 dereferenceable(8) %1) #3 comdat align 2 {
  %3 = alloca ptr, align 8
  %4 = alloca ptr, align 8
  store ptr %0, ptr %3, align 8, !tbaa !6
  store ptr %1, ptr %4, align 8, !tbaa !9
  ret void
}

; Function Attrs: inlinehint mustprogress uwtable
define available_externally noundef nonnull align 8 dereferenceable(8) ptr @_ZStlsISt11char_traitsIcEERSt13basic_ostreamIcT_ES5_PKc(ptr noundef nonnull align 8 dereferenceable(8) %0, ptr noundef %1) #4 {
  %3 = alloca ptr, align 8
  %4 = alloca ptr, align 8
  store ptr %0, ptr %3, align 8, !tbaa !9
  store ptr %1, ptr %4, align 8, !tbaa !11
  %5 = load ptr, ptr %4, align 8, !tbaa !11
  %6 = icmp ne ptr %5, null
  br i1 %6, label %13, label %7

7:                                                ; preds = %2
  %8 = load ptr, ptr %3, align 8, !tbaa !9
  %9 = load ptr, ptr %8, align 8, !tbaa !13
  %10 = getelementptr i8, ptr %9, i64 -24
  %11 = load i64, ptr %10, align 8
  %12 = getelementptr inbounds i8, ptr %8, i64 %11
  call void @_ZNSt9basic_iosIcSt11char_traitsIcEE8setstateESt12_Ios_Iostate(ptr noundef nonnull align 8 dereferenceable(264) %12, i32 noundef 1)
  br label %19

13:                                               ; preds = %2
  %14 = load ptr, ptr %3, align 8, !tbaa !9
  %15 = load ptr, ptr %4, align 8, !tbaa !11
  %16 = load ptr, ptr %4, align 8, !tbaa !11
  %17 = call noundef i64 @_ZNSt11char_traitsIcE6lengthEPKc(ptr noundef %16)
  %18 = call noundef nonnull align 8 dereferenceable(8) ptr @_ZSt16__ostream_insertIcSt11char_traitsIcEERSt13basic_ostreamIT_T0_ES6_PKS3_l(ptr noundef nonnull align 8 dereferenceable(8) %14, ptr noundef %15, i64 noundef %17)
  br label %19

19:                                               ; preds = %13, %7
  %20 = load ptr, ptr %3, align 8, !tbaa !9
  ret ptr %20
}

; Function Attrs: mustprogress nounwind uwtable
define linkonce_odr noundef nonnull align 8 dereferenceable(8) ptr @_ZN7logging10LogMessage6streamEv(ptr noundef nonnull align 8 dereferenceable(404) %0) #3 comdat align 2 {
  %2 = alloca ptr, align 8
  store ptr %0, ptr %2, align 8, !tbaa !15
  %3 = load ptr, ptr %2, align 8
  %4 = getelementptr inbounds nuw %"class.logging::LogMessage", ptr %3, i32 0, i32 2
  ret ptr %4
}

; Function Attrs: mustprogress nounwind uwtable
define linkonce_odr void @_ZN7logging17LogMessageVoidifyC2Ev(ptr noundef nonnull align 1 dereferenceable(1) %0) unnamed_addr #3 comdat align 2 {
  %2 = alloca ptr, align 8
  store ptr %0, ptr %2, align 8, !tbaa !6
  ret void
}

; Function Attrs: mustprogress uwtable
define noundef i32 @_ZN3net13SpdyConstants14ParseFrameTypeENS_16SpdyMajorVersionEi(i32 noundef %0, i32 noundef %1) #0 align 2 personality ptr @__gxx_personality_v0 {
  %3 = alloca i32, align 4
  %4 = alloca i32, align 4
  %5 = alloca i32, align 4
  %6 = alloca %"class.logging::LogMessageVoidify", align 1
  %7 = alloca %"class.logging::LogMessage", align 8
  %8 = alloca i1, align 1
  %9 = alloca i1, align 1
  %10 = alloca ptr, align 8
  %11 = alloca i32, align 4
  store i32 %0, ptr %4, align 4, !tbaa !21
  store i32 %1, ptr %5, align 4, !tbaa !17
  %12 = load i32, ptr %4, align 4, !tbaa !21
  switch i32 %12, label %39 [
    i32 1, label %13
    i32 2, label %24
  ]

13:                                               ; preds = %2
  %14 = load i32, ptr %5, align 4, !tbaa !17
  switch i32 %14, label %23 [
    i32 1, label %15
    i32 2, label %16
    i32 3, label %17
    i32 4, label %18
    i32 6, label %19
    i32 7, label %20
    i32 8, label %21
    i32 9, label %22
  ]

15:                                               ; preds = %13
  store i32 1, ptr %3, align 4
  br label %68

16:                                               ; preds = %13
  store i32 2, ptr %3, align 4
  br label %68

17:                                               ; preds = %13
  store i32 3, ptr %3, align 4
  br label %68

18:                                               ; preds = %13
  store i32 4, ptr %3, align 4
  br label %68

19:                                               ; preds = %13
  store i32 5, ptr %3, align 4
  br label %68

20:                                               ; preds = %13
  store i32 6, ptr %3, align 4
  br label %68

21:                                               ; preds = %13
  store i32 7, ptr %3, align 4
  br label %68

22:                                               ; preds = %13
  store i32 8, ptr %3, align 4
  br label %68

23:                                               ; preds = %13
  br label %39

24:                                               ; preds = %2
  %25 = load i32, ptr %5, align 4, !tbaa !17
  switch i32 %25, label %38 [
    i32 0, label %26
    i32 1, label %27
    i32 2, label %28
    i32 3, label %29
    i32 4, label %30
    i32 5, label %31
    i32 6, label %32
    i32 7, label %33
    i32 8, label %34
    i32 9, label %35
    i32 10, label %36
    i32 11, label %37
  ]

26:                                               ; preds = %24
  store i32 0, ptr %3, align 4
  br label %68

27:                                               ; preds = %24
  store i32 7, ptr %3, align 4
  br label %68

28:                                               ; preds = %24
  store i32 11, ptr %3, align 4
  br label %68

29:                                               ; preds = %24
  store i32 3, ptr %3, align 4
  br label %68

30:                                               ; preds = %24
  store i32 4, ptr %3, align 4
  br label %68

31:                                               ; preds = %24
  store i32 9, ptr %3, align 4
  br label %68

32:                                               ; preds = %24
  store i32 5, ptr %3, align 4
  br label %68

33:                                               ; preds = %24
  store i32 6, ptr %3, align 4
  br label %68

34:                                               ; preds = %24
  store i32 8, ptr %3, align 4
  br label %68

35:                                               ; preds = %24
  store i32 10, ptr %3, align 4
  br label %68

36:                                               ; preds = %24
  store i32 13, ptr %3, align 4
  br label %68

37:                                               ; preds = %24
  store i32 12, ptr %3, align 4
  br label %68

38:                                               ; preds = %24
  br label %39

39:                                               ; preds = %2, %38, %23
  %40 = call noundef zeroext i1 @_ZN7logging22ShouldCreateLogMessageEi(i32 noundef 2)
  call void @llvm.lifetime.start.p0(i64 1, ptr %6) #15
  store i1 false, ptr %8, align 1
  store i1 false, ptr %9, align 1
  br i1 %40, label %42, label %41

41:                                               ; preds = %39
  br label %51

42:                                               ; preds = %39
  call void @_ZN7logging17LogMessageVoidifyC2Ev(ptr noundef nonnull align 1 dereferenceable(1) %6)
  call void @llvm.lifetime.start.p0(i64 408, ptr %7) #15
  store i1 true, ptr %8, align 1
  call void @_ZN7logging10LogMessageC1EPKcii(ptr noundef nonnull align 8 dereferenceable(404) %7, ptr noundef @.str, i32 noundef 140, i32 noundef 2)
  store i1 true, ptr %9, align 1
  %43 = invoke noundef nonnull align 8 dereferenceable(8) ptr @_ZN7logging10LogMessage6streamEv(ptr noundef nonnull align 8 dereferenceable(404) %7)
          to label %44 unwind label %58

44:                                               ; preds = %42
  %45 = invoke noundef nonnull align 8 dereferenceable(8) ptr @_ZStlsISt11char_traitsIcEERSt13basic_ostreamIcT_ES5_PKc(ptr noundef nonnull align 8 dereferenceable(8) %43, ptr noundef @.str.4)
          to label %46 unwind label %58

46:                                               ; preds = %44
  %47 = load i32, ptr %5, align 4, !tbaa !17
  %48 = invoke noundef nonnull align 8 dereferenceable(8) ptr @_ZNSolsEi(ptr noundef nonnull align 8 dereferenceable(8) %45, i32 noundef %47)
          to label %49 unwind label %58

49:                                               ; preds = %46
  invoke void @_ZN7logging17LogMessageVoidifyanERSo(ptr noundef nonnull align 1 dereferenceable(1) %6, ptr noundef nonnull align 8 dereferenceable(8) %48)
          to label %50 unwind label %58

50:                                               ; preds = %49
  br label %51

51:                                               ; preds = %50, %41
  %52 = load i1, ptr %9, align 1
  br i1 %52, label %53, label %54

53:                                               ; preds = %51
  call void @_ZN7logging10LogMessageD1Ev(ptr noundef nonnull align 8 dereferenceable(404) %7) #15
  br label %54

54:                                               ; preds = %53, %51
  %55 = load i1, ptr %8, align 1
  br i1 %55, label %56, label %57

56:                                               ; preds = %54
  call void @llvm.lifetime.end.p0(i64 408, ptr %7) #15
  br label %57

57:                                               ; preds = %56, %54
  call void @llvm.lifetime.end.p0(i64 1, ptr %6) #15
  store i32 0, ptr %3, align 4
  br label %68

58:                                               ; preds = %49, %46, %44, %42
  %59 = landingpad { ptr, i32 }
          cleanup
  %60 = extractvalue { ptr, i32 } %59, 0
  store ptr %60, ptr %10, align 8
  %61 = extractvalue { ptr, i32 } %59, 1
  store i32 %61, ptr %11, align 4
  %62 = load i1, ptr %9, align 1
  br i1 %62, label %63, label %64

63:                                               ; preds = %58
  call void @_ZN7logging10LogMessageD1Ev(ptr noundef nonnull align 8 dereferenceable(404) %7) #15
  br label %64

64:                                               ; preds = %63, %58
  %65 = load i1, ptr %8, align 1
  br i1 %65, label %66, label %67

66:                                               ; preds = %64
  call void @llvm.lifetime.end.p0(i64 408, ptr %7) #15
  br label %67

67:                                               ; preds = %66, %64
  call void @llvm.lifetime.end.p0(i64 1, ptr %6) #15
  br label %70

68:                                               ; preds = %57, %37, %36, %35, %34, %33, %32, %31, %30, %29, %28, %27, %26, %22, %21, %20, %19, %18, %17, %16, %15
  %69 = load i32, ptr %3, align 4
  ret i32 %69

70:                                               ; preds = %67
  %71 = load ptr, ptr %10, align 8
  %72 = load i32, ptr %11, align 4
  %73 = insertvalue { ptr, i32 } poison, ptr %71, 0
  %74 = insertvalue { ptr, i32 } %73, i32 %72, 1
  resume { ptr, i32 } %74
}